; ModuleID = '27/1338.c'
source_filename = "27/1338.c"
target datalayout = "e-m:e-p270:32:32-p271:32:32-p272:64:64-i64:64-f80:128-n8:16:32:64-S128"
target triple = "x86_64-pc-linux-gnu"

@.str = private unnamed_addr constant [4 x i8] c"%d\0A\00", align 1
@.str.1 = private unnamed_addr constant [10 x i8] c"%lf%lf%lf\00", align 1
@.str.2 = private unnamed_addr constant [19 x i8] c"x1=%.5lf;x2=%.5lf\0A\00", align 1
@.str.3 = private unnamed_addr constant [13 x i8] c"x1=x2=%.5lf\0A\00", align 1
@.str.4 = private unnamed_addr constant [33 x i8] c"x1=%.5lf+%.5lfi;x2=%.5lf-%.5lfi\0A\00", align 1

; Function Attrs: noinline nounwind uwtable
define dso_local i32 @main() #0 {
  %1 = alloca i32, align 4
  %2 = alloca i32, align 4
  %3 = alloca i32, align 4
  %4 = alloca double, align 8
  %5 = alloca double, align 8
  %6 = alloca double, align 8
  %7 = alloca double, align 8
  %8 = alloca double, align 8
  store i32 0, i32* %1, align 4
  %9 = call i32 (i8*, ...) @__isoc99_scanf(i8* getelementptr inbounds ([4 x i8], [4 x i8]* @.str, i64 0, i64 0), i32* %2)
  store i32 0, i32* %3, align 4
  br label %10

10:                                               ; preds = %71, %0
  %11 = load i32, i32* %3, align 4
  %12 = load i32, i32* %2, align 4
  %13 = icmp slt i32 %11, %12
  br i1 %13, label %14, label %74

14:                                               ; preds = %10
  %15 = call i32 (i8*, ...) @__isoc99_scanf(i8* getelementptr inbounds ([10 x i8], [10 x i8]* @.str.1, i64 0, i64 0), double* %4, double* %5, double* %6)
  %16 = load double, double* %5, align 8
  %17 = load double, double* %5, align 8
  %18 = fmul double %16, %17
  %19 = load double, double* %4, align 8
  %20 = fmul double 4.000000e+00, %19
  %21 = load double, double* %6, align 8
  %22 = fmul double %20, %21
  %23 = fsub double %18, %22
  store double %23, double* %7, align 8
  %24 = load double, double* %5, align 8
  %25 = fneg double %24
  %26 = load double, double* %4, align 8
  %27 = fmul double 2.000000e+00, %26
  %28 = fdiv double %25, %27
  store double %28, double* %8, align 8
  %29 = load double, double* %7, align 8
  %30 = fcmp ogt double %29, 0.000000e+00
  br i1 %30, label %31, label %47

31:                                               ; preds = %14
  %32 = load double, double* %8, align 8
  %33 = load double, double* %7, align 8
  %34 = call double @sqrt(double %33) #3
  %35 = load double, double* %4, align 8
  %36 = fmul double 2.000000e+00, %35
  %37 = fdiv double %34, %36
  %38 = fadd double %32, %37
  %39 = load double, double* %8, align 8
  %40 = load double, double* %7, align 8
  %41 = call double @sqrt(double %40) #3
  %42 = load double, double* %4, align 8
  %43 = fmul double 2.000000e+00, %42
  %44 = fdiv double %41, %43
  %45 = fsub double %39, %44
  %46 = call i32 (i8*, ...) @printf(i8* getelementptr inbounds ([19 x i8], [19 x i8]* @.str.2, i64 0, i64 0), double %38, double %45)
  br label %70

47:                                               ; preds = %14
  %48 = load double, double* %7, align 8
  %49 = fcmp oeq double %48, 0.000000e+00
  br i1 %49, label %50, label %53

50:                                               ; preds = %47
  %51 = load double, double* %8, align 8
  %52 = call i32 (i8*, ...) @printf(i8* getelementptr inbounds ([13 x i8], [13 x i8]* @.str.3, i64 0, i64 0), double %51)
  br label %69

53:                                               ; preds = %47
  %54 = load double, double* %8, align 8
  %55 = load double, double* %7, align 8
  %56 = fneg double %55
  %57 = call double @sqrt(double %56) #3
  %58 = load double, double* %4, align 8
  %59 = fmul double 2.000000e+00, %58
  %60 = fdiv double %57, %59
  %61 = load double, double* %8, align 8
  %62 = load double, double* %7, align 8
  %63 = fneg double %62
  %64 = call double @sqrt(double %63) #3
  %65 = load double, double* %4, align 8
  %66 = fmul double 2.000000e+00, %65
  %67 = fdiv double %64, %66
  %68 = call i32 (i8*, ...) @printf(i8* getelementptr inbounds ([33 x i8], [33 x i8]* @.str.4, i64 0, i64 0), double %54, double %60, double %61, double %67)
  br label %69

69:                                               ; preds = %53, %50
  br label %70

70:                                               ; preds = %69, %31
  br label %71

71:                                               ; preds = %70
  %72 = load i32, i32* %3, align 4
  %73 = add nsw i32 %72, 1
  store i32 %73, i32* %3, align 4
  br label %10

74:                                               ; preds = %10
  ret i32 0
}

declare dso_local i32 @__isoc99_scanf(i8*, ...) #1

declare dso_local i32 @printf(i8*, ...) #1

; Function Attrs: nounwind
declare dso_local double @sqrt(double) #2


!llvm.module.flags = !{!0}
!llvm.ident = !{!1}

!0 = !{i32 1, !"wchar_size", i32 4}
!1 = !{!"clang version 10.0.0-4ubuntu1 "}
